Certificate:
    Data:
        Version: 3 (0x2)
        Serial Number: 45 (0x2d)
        Signature Algorithm: sha1WithRSAEncryption
        Issuer: C=US, O=Google, OU=Enterprise, CN=Enterprise Subordinate CA
        Validity
            Not Before: Apr 22 11:55:31 2021 GMT
            Not After : Oct 13 11:55:31 2026 GMT
        Subject: C=US, O=Google, OU=Enterprise, CN=localhost.esodemoapp2.com
        Subject Public Key Info:
            Public Key Algorithm: rsaEncryption
                RSA Public-Key: (2048 bit)
                Modulus:
                    00:be:f8:3a:94:59:f0:ec:46:3d:36:86:15:fc:e8:
                    17:e5:4b:2c:3e:1e:79:59:e9:83:15:a7:ed:b4:f9:
                    6c:f6:c4:f8:35:d1:d5:2e:f2:ed:08:f5:f2:e8:8f:
                    5f:ea:01:66:41:c4:31:12:9a:4c:f9:b6:01:52:d4:
                    59:82:eb:9e:c2:97:0e:06:45:2f:7f:42:3f:62:b8:
                    13:8a:9e:2a:a1:4a:c1:a6:dd:9d:9a:4c:60:b5:74:
                    28:67:b1:8d:76:22:99:36:f8:38:dd:16:7c:6a:59:
                    f6:3e:59:87:4d:3b:d6:d0:12:b9:ba:25:d6:da:fa:
                    7c:d3:56:8b:f7:60:f5:c7:46:e7:3f:4c:36:a1:cb:
                    05:c9:24:88:bb:15:1d:4f:c0:12:8a:27:6b:b9:a7:
                    5d:4f:46:f7:9b:de:81:f7:f1:36:de:93:e6:d7:4c:
                    30:8a:5c:78:db:d7:c1:53:a1:59:88:2b:47:02:e4:
                    41:c0:bb:30:56:5d:be:8f:bc:37:ad:55:1d:ab:10:
                    d7:d5:a9:87:3b:be:bf:d0:8c:e7:73:7c:c1:b9:70:
                    ef:88:9f:11:cf:a2:6e:f5:19:7e:b9:e6:3e:d7:10:
                    ce:fa:c3:b2:1d:39:aa:33:bd:e0:60:0a:1b:04:96:
                    9e:03:02:2b:0b:63:46:c1:55:79:16:02:2f:57:73:
                    98:93
                Exponent: 65537 (0x10001)
        X509v3 extensions:
            X509v3 Key Usage: critical
                Digital Signature
            X509v3 Basic Constraints: 
                CA:FALSE
            X509v3 Extended Key Usage: 
                TLS Web Server Authentication
            X509v3 Subject Key Identifier: 
                BD:A8:9B:5C:B8:03:86:81:D0:5C:B3:ED:95:40:19:85:6B:92:25:37
            X509v3 Authority Key Identifier: 
                keyid:BF:E1:1C:F0:22:48:8F:FC:3B:CF:5D:D9:ED:AE:88:70:21:DF:DD:86

            Authority Information Access: 
                CA Issuers - URI:http://pki.esodemoapp2.com/ca/tls-ca.cer

            X509v3 CRL Distribution Points: 

                Full Name:
                  URI:http://pki.esodemoapp2.com/ca/tls-ca.crl

            X509v3 Subject Alternative Name: 
                DNS:localhost.esodemoapp2.com
    Signature Algorithm: sha1WithRSAEncryption
         8e:6f:70:bf:9c:90:6d:f2:f6:e1:04:1a:aa:26:9a:d2:ce:5e:
         d4:5d:32:da:ae:d2:3d:55:d4:a6:61:77:56:34:7f:a1:29:4c:
         b1:a5:4d:e9:3c:22:1a:8e:7c:f0:07:a5:cc:54:41:e1:42:3e:
         3c:58:e0:74:6a:b0:ba:71:de:89:3f:82:b5:f4:91:8d:07:29:
         8c:0c:7e:b5:b0:ba:c0:47:e6:1b:ab:15:4d:3a:0c:af:21:58:
         40:e3:07:f3:68:4c:e8:2c:92:cd:f1:28:65:a7:40:c8:11:d0:
         85:45:9c:18:96:05:47:93:29:5d:6a:7c:f0:24:6b:5f:5e:a0:
         04:67:29:5c:87:c5:33:a3:53:7f:c6:2a:d3:f0:8d:7b:49:f6:
         04:67:68:22:12:8f:21:cb:83:e3:a7:56:ce:59:df:a0:2e:cc:
         83:6a:52:b9:78:88:66:73:1d:c3:7f:a1:f1:71:5b:bd:58:01:
         00:0e:e8:cf:28:f5:5c:3d:ec:47:5d:fa:a5:83:02:f2:1a:bb:
         27:e7:9d:7a:0c:8f:a7:be:e8:79:df:bf:ef:57:d7:b7:58:b3:
         54:69:e7:53:f6:e2:4a:e3:54:9e:16:39:ea:25:19:a7:7b:77:
         6b:78:65:ac:e3:f4:ab:b4:3c:68:fd:77:08:5a:46:e8:2b:dd:
         43:5a:4e:3a
-----BEGIN CERTIFICATE-----
MIIERjCCAy6gAwIBAgIBLTANBgkqhkiG9w0BAQUFADBXMQswCQYDVQQGEwJVUzEP
MA0GA1UECgwGR29vZ2xlMRMwEQYDVQQLDApFbnRlcnByaXNlMSIwIAYDVQQDDBlF
bnRlcnByaXNlIFN1Ym9yZGluYXRlIENBMB4XDTIxMDQyMjExNTUzMVoXDTI2MTAx
MzExNTUzMVowVzELMAkGA1UEBhMCVVMxDzANBgNVBAoMBkdvb2dsZTETMBEGA1UE
CwwKRW50ZXJwcmlzZTEiMCAGA1UEAwwZbG9jYWxob3N0LmVzb2RlbW9hcHAyLmNv
bTCCASIwDQYJKoZIhvcNAQEBBQADggEPADCCAQoCggEBAL74OpRZ8OxGPTaGFfzo
F+VLLD4eeVnpgxWn7bT5bPbE+DXR1S7y7Qj18uiPX+oBZkHEMRKaTPm2AVLUWYLr
nsKXDgZFL39CP2K4E4qeKqFKwabdnZpMYLV0KGexjXYimTb4ON0WfGpZ9j5Zh007
1tASubol1tr6fNNWi/dg9cdG5z9MNqHLBckkiLsVHU/AEoona7mnXU9G95vegffx
Nt6T5tdMMIpceNvXwVOhWYgrRwLkQcC7MFZdvo+8N61VHasQ19Wphzu+v9CM53N8
wblw74ifEc+ibvUZfrnmPtcQzvrDsh05qjO94GAKGwSWngMCKwtjRsFVeRYCL1dz
mJMCAwEAAaOCARswggEXMA4GA1UdDwEB/wQEAwIHgDAJBgNVHRMEAjAAMBMGA1Ud
JQQMMAoGCCsGAQUFBwMBMB0GA1UdDgQWBBS9qJtcuAOGgdBcs+2VQBmFa5IlNzAf
BgNVHSMEGDAWgBS/4RzwIkiP/DvPXdntrohwId/dhjBEBggrBgEFBQcBAQQ4MDYw
NAYIKwYBBQUHMAKGKGh0dHA6Ly9wa2kuZXNvZGVtb2FwcDIuY29tL2NhL3Rscy1j
YS5jZXIwOQYDVR0fBDIwMDAuoCygKoYoaHR0cDovL3BraS5lc29kZW1vYXBwMi5j
b20vY2EvdGxzLWNhLmNybDAkBgNVHREEHTAbghlsb2NhbGhvc3QuZXNvZGVtb2Fw
cDIuY29tMA0GCSqGSIb3DQEBBQUAA4IBAQCOb3C/nJBt8vbhBBqqJprSzl7UXTLa
rtI9VdSmYXdWNH+hKUyxpU3pPCIajnzwB6XMVEHhQj48WOB0arC6cd6JP4K19JGN
BymMDH61sLrAR+YbqxVNOgyvIVhA4wfzaEzoLJLN8Shlp0DIEdCFRZwYlgVHkyld
anzwJGtfXqAEZylch8Uzo1N/xirT8I17SfYEZ2giEo8hy4Pjp1bOWd+gLsyDalK5
eIhmcx3Df6HxcVu9WAEADujPKPVcPexHXfqlgwLyGrsn5516DI+nvuh537/vV9e3
WLNUaedT9uJK41SeFjnqJRmne3dreGWs4/SrtDxo/XcIWkboK91DWk46
-----END CERTIFICATE-----
